target datalayout = "e-m:e-p270:32:32-p271:32:32-p272:64:64-i64:64-i128:128-f80:128-n8:16:32:64-S128"
target triple = "x86_64-pc-linux-gnu"

%struct.git_hash_algo = type { ptr, i32, i64, i64, i64, ptr, ptr, ptr, ptr, ptr, ptr, ptr, ptr, ptr }
%struct.multi_pack_index = type { ptr, ptr, i64, ptr, ptr, i64, i32, i8, i8, i8, i32, i32, i32, i32, i32, ptr, i64, ptr, i64, ptr, ptr, ptr, ptr, i64, ptr, i64, ptr, i32, i32, ptr, ptr, ptr, [0 x i8] }
%struct.repository = type { ptr, ptr, ptr, ptr, ptr, %struct.strmap, %struct.strmap, %struct.repo_path_cache, ptr, ptr, ptr, ptr, %struct.repo_settings, ptr, ptr, ptr, ptr, ptr, ptr, i32, i32, i32, ptr, ptr, i32, i32, i8 }
%struct.strmap = type { %struct.hashmap, ptr, i8 }
%struct.hashmap = type { ptr, ptr, ptr, i32, i32, i32, i32, i8 }
%struct.repo_path_cache = type { ptr, ptr, ptr, ptr, ptr, ptr, ptr }
%struct.repo_settings = type { i32, i32, i32, i32, i32, i32, i32, i32, i32, i32, i32, i32, ptr, i32, i32, i32, i32, i32, i32, i32, i64, i64, i64 }
%struct.object_id = type { [32 x i8], i32 }

@.str.43 = private unnamed_addr constant [7 x i8] c"midx.c\00", align 1
@.str.64 = private unnamed_addr constant [46 x i8] c"NULL multi-pack-index for object position: %u\00", align 1
@.str.65 = private unnamed_addr constant [53 x i8] c"invalid MIDX object position, MIDX is likely corrupt\00", align 1
@hash_algos = external constant [3 x %struct.git_hash_algo], align 16
@.str.66 = private unnamed_addr constant [27 x i8] c"size_t overflow: %lu * %lu\00", align 1

; Function Attrs: inlinehint nounwind uwtable
define internal i32 @hash_algo_by_ptr(ptr noundef %0) #2 {
  %2 = alloca i32, align 4
  %3 = alloca ptr, align 8
  %4 = alloca i64, align 8
  %5 = alloca ptr, align 8
  %6 = alloca i32, align 4
  store ptr %0, ptr %3, align 8, !tbaa !37
  call void @llvm.lifetime.start.p0(i64 8, ptr %4) #13
  store i64 0, ptr %4, align 8, !tbaa !11
  br label %7

7:                                                ; preds = %23, %1
  %8 = load i64, ptr %4, align 8, !tbaa !11
  %9 = icmp ult i64 %8, 3
  br i1 %9, label %10, label %26

10:                                               ; preds = %7
  call void @llvm.lifetime.start.p0(i64 8, ptr %5) #13
  %11 = load i64, ptr %4, align 8, !tbaa !11
  %12 = getelementptr inbounds nuw [3 x %struct.git_hash_algo], ptr @hash_algos, i64 0, i64 %11
  store ptr %12, ptr %5, align 8, !tbaa !37
  %13 = load ptr, ptr %3, align 8, !tbaa !37
  %14 = load ptr, ptr %5, align 8, !tbaa !37
  %15 = icmp eq ptr %13, %14
  br i1 %15, label %16, label %19

16:                                               ; preds = %10
  %17 = load i64, ptr %4, align 8, !tbaa !11
  %18 = trunc i64 %17 to i32
  store i32 %18, ptr %2, align 4
  store i32 1, ptr %6, align 4
  br label %20

19:                                               ; preds = %10
  store i32 0, ptr %6, align 4
  br label %20

20:                                               ; preds = %19, %16
  call void @llvm.lifetime.end.p0(i64 8, ptr %5) #13
  %21 = load i32, ptr %6, align 4
  switch i32 %21, label %27 [
    i32 0, label %22
  ]

22:                                               ; preds = %20
  br label %23

23:                                               ; preds = %22
  %24 = load i64, ptr %4, align 8, !tbaa !11
  %25 = add i64 %24, 1
  store i64 %25, ptr %4, align 8, !tbaa !11
  br label %7, !llvm.loop !153

26:                                               ; preds = %7
  store i32 0, ptr %2, align 4
  store i32 1, ptr %6, align 4
  br label %27

27:                                               ; preds = %26, %20
  call void @llvm.lifetime.end.p0(i64 8, ptr %4) #13
  %28 = load i32, ptr %2, align 4
  ret i32 %28
}

; Function Attrs: inlinehint nounwind uwtable
define internal void @oidread(ptr noundef %0, ptr noundef %1, ptr noundef %2) #2 {
  %4 = alloca ptr, align 8
  %5 = alloca ptr, align 8
  %6 = alloca ptr, align 8
  store ptr %0, ptr %4, align 8, !tbaa !81
  store ptr %1, ptr %5, align 8, !tbaa !9
  store ptr %2, ptr %6, align 8, !tbaa !37
  %7 = load ptr, ptr %4, align 8, !tbaa !81
  %8 = getelementptr inbounds nuw %struct.object_id, ptr %7, i32 0, i32 0
  %9 = getelementptr inbounds [32 x i8], ptr %8, i64 0, i64 0
  %10 = load ptr, ptr %5, align 8, !tbaa !9
  %11 = load ptr, ptr %6, align 8, !tbaa !37
  %12 = getelementptr inbounds nuw %struct.git_hash_algo, ptr %11, i32 0, i32 2
  %13 = load i64, ptr %12, align 8, !tbaa !34
  call void @llvm.memcpy.p0.p0.i64(ptr align 4 %9, ptr align 1 %10, i64 %13, i1 false)
  %14 = load ptr, ptr %6, align 8, !tbaa !37
  %15 = getelementptr inbounds nuw %struct.git_hash_algo, ptr %14, i32 0, i32 2
  %16 = load i64, ptr %15, align 8, !tbaa !34
  %17 = icmp ult i64 %16, 32
  br i1 %17, label %18, label %30

18:                                               ; preds = %3
  %19 = load ptr, ptr %4, align 8, !tbaa !81
  %20 = getelementptr inbounds nuw %struct.object_id, ptr %19, i32 0, i32 0
  %21 = getelementptr inbounds [32 x i8], ptr %20, i64 0, i64 0
  %22 = load ptr, ptr %6, align 8, !tbaa !37
  %23 = getelementptr inbounds nuw %struct.git_hash_algo, ptr %22, i32 0, i32 2
  %24 = load i64, ptr %23, align 8, !tbaa !34
  %25 = getelementptr inbounds nuw i8, ptr %21, i64 %24
  %26 = load ptr, ptr %6, align 8, !tbaa !37
  %27 = getelementptr inbounds nuw %struct.git_hash_algo, ptr %26, i32 0, i32 2
  %28 = load i64, ptr %27, align 8, !tbaa !34
  %29 = sub i64 32, %28
  call void @llvm.memset.p0.i64(ptr align 1 %25, i8 0, i64 %29, i1 false)
  br label %30

30:                                               ; preds = %18, %3
  %31 = load ptr, ptr %6, align 8, !tbaa !37
  %32 = call i32 @hash_algo_by_ptr(ptr noundef %31)
  %33 = load ptr, ptr %4, align 8, !tbaa !81
  %34 = getelementptr inbounds nuw %struct.object_id, ptr %33, i32 0, i32 1
  store i32 %32, ptr %34, align 4, !tbaa !84
  ret void
}

; Function Attrs: inlinehint nounwind uwtable
define internal i64 @st_mult(i64 noundef %0, i64 noundef %1) #2 {
  %3 = alloca i64, align 8
  %4 = alloca i64, align 8
  store i64 %0, ptr %3, align 8, !tbaa !11
  store i64 %1, ptr %4, align 8, !tbaa !11
  %5 = load i64, ptr %3, align 8, !tbaa !11
  %6 = icmp ne i64 %5, 0
  br i1 %6, label %7, label %15

7:                                                ; preds = %2
  %8 = load i64, ptr %4, align 8, !tbaa !11
  %9 = load i64, ptr %3, align 8, !tbaa !11
  %10 = udiv i64 -1, %9
  %11 = icmp ugt i64 %8, %10
  br i1 %11, label %12, label %15

12:                                               ; preds = %7
  %13 = load i64, ptr %3, align 8, !tbaa !11
  %14 = load i64, ptr %4, align 8, !tbaa !11
  call void (ptr, ...) @die(ptr noundef @.str.66, i64 noundef %13, i64 noundef %14) #14
  unreachable

15:                                               ; preds = %7, %2
  %16 = load i64, ptr %3, align 8, !tbaa !11
  %17 = load i64, ptr %4, align 8, !tbaa !11
  %18 = mul i64 %16, %17
  ret i64 %18
}

; Function Attrs: nounwind uwtable
define internal i32 @midx_for_object(ptr noundef %0, i32 noundef %1) #0 {
  %3 = alloca ptr, align 8
  %4 = alloca i32, align 4
  %5 = alloca ptr, align 8
  store ptr %0, ptr %3, align 8, !tbaa !61
  store i32 %1, ptr %4, align 4, !tbaa !40
  call void @llvm.lifetime.start.p0(i64 8, ptr %5) #13
  %6 = load ptr, ptr %3, align 8, !tbaa !61
  %7 = load ptr, ptr %6, align 8, !tbaa !4
  store ptr %7, ptr %5, align 8, !tbaa !4
  br label %8

8:                                                ; preds = %19, %2
  %9 = load ptr, ptr %5, align 8, !tbaa !4
  %10 = icmp ne ptr %9, null
  br i1 %10, label %11, label %17

11:                                               ; preds = %8
  %12 = load i32, ptr %4, align 4, !tbaa !40
  %13 = load ptr, ptr %5, align 8, !tbaa !4
  %14 = getelementptr inbounds nuw %struct.multi_pack_index, ptr %13, i32 0, i32 27
  %15 = load i32, ptr %14, align 8, !tbaa !40
  %16 = icmp ult i32 %12, %15
  br label %17

17:                                               ; preds = %11, %8
  %18 = phi i1 [ false, %8 ], [ %16, %11 ]
  br i1 %18, label %19, label %23

19:                                               ; preds = %17
  %20 = load ptr, ptr %5, align 8, !tbaa !4
  %21 = getelementptr inbounds nuw %struct.multi_pack_index, ptr %20, i32 0, i32 26
  %22 = load ptr, ptr %21, align 8, !tbaa !4
  store ptr %22, ptr %5, align 8, !tbaa !4
  br label %8, !llvm.loop !83

23:                                               ; preds = %17
  %24 = load ptr, ptr %5, align 8, !tbaa !4
  %25 = icmp ne ptr %24, null
  br i1 %25, label %28, label %26

26:                                               ; preds = %23
  %27 = load i32, ptr %4, align 4, !tbaa !40
  call void (ptr, i32, ptr, ...) @BUG_fl(ptr noundef @.str.43, i32 noundef 424, ptr noundef @.str.64, i32 noundef %27) #14
  unreachable

28:                                               ; preds = %23
  %29 = load i32, ptr %4, align 4, !tbaa !40
  %30 = load ptr, ptr %5, align 8, !tbaa !4
  %31 = getelementptr inbounds nuw %struct.multi_pack_index, ptr %30, i32 0, i32 11
  %32 = load i32, ptr %31, align 4, !tbaa !40
  %33 = load ptr, ptr %5, align 8, !tbaa !4
  %34 = getelementptr inbounds nuw %struct.multi_pack_index, ptr %33, i32 0, i32 27
  %35 = load i32, ptr %34, align 8, !tbaa !40
  %36 = add i32 %32, %35
  %37 = icmp uge i32 %29, %36
  br i1 %37, label %38, label %40

38:                                               ; preds = %28
  %39 = call ptr @_(ptr noundef @.str.65)
  call void (ptr, ...) @die(ptr noundef %39) #14
  unreachable

40:                                               ; preds = %28
  %41 = load ptr, ptr %5, align 8, !tbaa !4
  %42 = load ptr, ptr %3, align 8, !tbaa !61
  store ptr %41, ptr %42, align 8, !tbaa !4
  %43 = load i32, ptr %4, align 4, !tbaa !40
  %44 = load ptr, ptr %5, align 8, !tbaa !4
  %45 = getelementptr inbounds nuw %struct.multi_pack_index, ptr %44, i32 0, i32 27
  %46 = load i32, ptr %45, align 8, !tbaa !40
  %47 = sub i32 %43, %46
  call void @llvm.lifetime.end.p0(i64 8, ptr %5) #13
  ret i32 %47
}

; Function Attrs: nounwind uwtable
define dso_local ptr @nth_midxed_object_oid(ptr noundef %0, ptr noundef %1, i32 noundef %2) #0 {
  %4 = alloca ptr, align 8
  %5 = alloca ptr, align 8
  %6 = alloca ptr, align 8
  %7 = alloca i32, align 4
  store ptr %0, ptr %5, align 8, !tbaa !81
  store ptr %1, ptr %6, align 8, !tbaa !4
  store i32 %2, ptr %7, align 4, !tbaa !40
  %8 = load i32, ptr %7, align 4, !tbaa !40
  %9 = load ptr, ptr %6, align 8, !tbaa !4
  %10 = getelementptr inbounds nuw %struct.multi_pack_index, ptr %9, i32 0, i32 11
  %11 = load i32, ptr %10, align 4, !tbaa !40
  %12 = load ptr, ptr %6, align 8, !tbaa !4
  %13 = getelementptr inbounds nuw %struct.multi_pack_index, ptr %12, i32 0, i32 27
  %14 = load i32, ptr %13, align 8, !tbaa !40
  %15 = add i32 %11, %14
  %16 = icmp uge i32 %8, %15
  br i1 %16, label %17, label %18

17:                                               ; preds = %3
  store ptr null, ptr %4, align 8
  br label %39

18:                                               ; preds = %3
  %19 = load i32, ptr %7, align 4, !tbaa !40
  %20 = call i32 @midx_for_object(ptr noundef %6, i32 noundef %19)
  store i32 %20, ptr %7, align 4, !tbaa !40
  %21 = load ptr, ptr %5, align 8, !tbaa !81
  %22 = load ptr, ptr %6, align 8, !tbaa !4
  %23 = getelementptr inbounds nuw %struct.multi_pack_index, ptr %22, i32 0, i32 20
  %24 = load ptr, ptr %23, align 8, !tbaa !9
  %25 = load ptr, ptr %6, align 8, !tbaa !4
  %26 = getelementptr inbounds nuw %struct.multi_pack_index, ptr %25, i32 0, i32 8
  %27 = load i8, ptr %26, align 1, !tbaa !49
  %28 = zext i8 %27 to i64
  %29 = load i32, ptr %7, align 4, !tbaa !40
  %30 = zext i32 %29 to i64
  %31 = call i64 @st_mult(i64 noundef %28, i64 noundef %30)
  %32 = getelementptr inbounds nuw i8, ptr %24, i64 %31
  %33 = load ptr, ptr %6, align 8, !tbaa !4
  %34 = getelementptr inbounds nuw %struct.multi_pack_index, ptr %33, i32 0, i32 31
  %35 = load ptr, ptr %34, align 8, !tbaa !13
  %36 = getelementptr inbounds nuw %struct.repository, ptr %35, i32 0, i32 17
  %37 = load ptr, ptr %36, align 8, !tbaa !15
  call void @oidread(ptr noundef %21, ptr noundef %32, ptr noundef %37)
  %38 = load ptr, ptr %5, align 8, !tbaa !81
  store ptr %38, ptr %4, align 8
  br label %39

39:                                               ; preds = %18, %17
  %40 = load ptr, ptr %4, align 8
  ret ptr %40
}