; Function Attrs: nounwind uwtable
define dso_local noundef ptr @nth_midxed_object_oid(ptr noundef writeonly %0, ptr noundef readonly captures(none) %1, i32 noundef %2) local_unnamed_addr #1 {
  %4 = getelementptr inbounds nuw i8, ptr %1, i64 60
  %5 = load i32, ptr %4, align 4, !tbaa !41
  %6 = getelementptr inbounds nuw i8, ptr %1, i64 176
  %7 = load i32, ptr %6, align 8, !tbaa !41
  %8 = add i32 %7, %5
  %.not = icmp ult i32 %2, %8
  br i1 %.not, label %.lr.ph.i, label %45

.lr.ph.i:                                         ; preds = %3, %12
  %.019.i = phi ptr [ %.0.i, %12 ], [ %1, %3 ]
  %9 = getelementptr inbounds nuw i8, ptr %.019.i, i64 176
  %10 = load i32, ptr %9, align 8, !tbaa !41
  %11 = icmp ult i32 %2, %10
  br i1 %11, label %12, label %.critedge.i

12:                                               ; preds = %.lr.ph.i
  %13 = getelementptr inbounds nuw i8, ptr %.019.i, i64 168
  %.0.i = load ptr, ptr %13, align 8, !tbaa !44
  %.not.i = icmp eq ptr %.0.i, null
  br i1 %.not.i, label %.critedge15.i, label %.lr.ph.i, !llvm.loop !76

.critedge15.i:                                    ; preds = %12
  tail call void (ptr, i32, ptr, ...) @BUG_fl(ptr noundef nonnull @.str.43, i32 noundef 424, ptr noundef nonnull @.str.64, i32 noundef %2) #24
  unreachable

.critedge.i:                                      ; preds = %.lr.ph.i
  %14 = getelementptr inbounds nuw i8, ptr %.019.i, i64 60
  %15 = load i32, ptr %14, align 4, !tbaa !41
  %16 = add i32 %15, %10
  %.not14.i = icmp ult i32 %2, %16
  br i1 %.not14.i, label %midx_for_object.exit, label %17

17:                                               ; preds = %.critedge.i
  %18 = tail call fastcc ptr @_(ptr noundef nonnull @.str.65)
  tail call void (ptr, ...) @die(ptr noundef %18) #24
  unreachable

midx_for_object.exit:                             ; preds = %.critedge.i
  %19 = sub i32 %2, %10
  %20 = getelementptr inbounds nuw i8, ptr %.019.i, i64 120
  %21 = load ptr, ptr %20, align 8, !tbaa !4
  %22 = getelementptr inbounds nuw i8, ptr %.019.i, i64 53
  %23 = load i8, ptr %22, align 1, !tbaa !43
  %24 = zext i8 %23 to i64
  %25 = zext i32 %19 to i64
  %26 = mul nuw nsw i64 %24, %25
  %27 = getelementptr inbounds nuw i8, ptr %21, i64 %26
  %28 = getelementptr inbounds nuw i8, ptr %.019.i, i64 200
  %29 = load ptr, ptr %28, align 8, !tbaa !11
  %30 = getelementptr inbounds nuw i8, ptr %29, i64 400
  %31 = load ptr, ptr %30, align 8, !tbaa !13
  %32 = getelementptr inbounds nuw i8, ptr %31, i64 16
  %33 = load i64, ptr %32, align 8, !tbaa !32
  tail call void @llvm.memcpy.p0.p0.i64(ptr align 4 %0, ptr readonly align 1 %27, i64 %33, i1 false)
  %34 = load i64, ptr %32, align 8, !tbaa !32
  %35 = icmp ult i64 %34, 32
  br i1 %35, label %36, label %.preheader

36:                                               ; preds = %midx_for_object.exit
  %37 = getelementptr inbounds nuw i8, ptr %0, i64 %34
  %38 = sub nuw nsw i64 32, %34
  tail call void @llvm.memset.p0.i64(ptr align 1 %37, i8 0, i64 %38, i1 false)
  br label %.preheader

.preheader:                                       ; preds = %36, %midx_for_object.exit
  br label %39

39:                                               ; preds = %.preheader, %41
  %.0811.i.i = phi i64 [ %42, %41 ], [ 0, %.preheader ]
  %40 = getelementptr inbounds nuw [3 x %struct.git_hash_algo], ptr @hash_algos, i64 0, i64 %.0811.i.i
  %.not.i.i = icmp eq ptr %31, %40
  br i1 %.not.i.i, label %.split.loop.exit9.i.i, label %41

41:                                               ; preds = %39
  %42 = add nuw nsw i64 %.0811.i.i, 1
  %exitcond.not.i.i = icmp eq i64 %42, 3
  br i1 %exitcond.not.i.i, label %oidread.exit, label %39, !llvm.loop !77

.split.loop.exit9.i.i:                            ; preds = %39
  %43 = trunc nuw nsw i64 %.0811.i.i to i32
  br label %oidread.exit

oidread.exit:                                     ; preds = %41, %.split.loop.exit9.i.i
  %.2.i.i = phi i32 [ %43, %.split.loop.exit9.i.i ], [ 0, %41 ]
  %44 = getelementptr inbounds nuw i8, ptr %0, i64 32
  store i32 %.2.i.i, ptr %44, align 4, !tbaa !78
  br label %45

45:                                               ; preds = %3, %oidread.exit
  %.0 = phi ptr [ %0, %oidread.exit ], [ null, %3 ]
  ret ptr %.0
}